target datalayout = "e-m:e-p270:32:32-p271:32:32-p272:64:64-i64:64-i128:128-f80:128-n8:16:32:64-S128"
target triple = "x86_64-pc-linux-gnu"

%struct.pmix_value = type { i16, %union.anon }
%union.anon = type { %struct.pmix_envar_t }
%struct.pmix_envar_t = type { ptr, ptr, i8 }
%struct.pmix_info = type { [512 x i8], i32, %struct.pmix_value }
%struct.pmix_info_array = type { i64, ptr }

@.str.74 = private unnamed_addr constant [29 x i8] c"%sKEY: %s DIRECTIVES: %0x %s\00", align 1
@.str.75 = private unnamed_addr constant [17 x i8] c"PMIX_VALUE: NULL\00", align 1
@.str.103 = private unnamed_addr constant [18 x i8] c"%sARRAY SIZE: %ld\00", align 1
@.str.104 = private unnamed_addr constant [5 x i8] c"\0A%s\09\00", align 1
@.str.105 = private unnamed_addr constant [1 x i8] zeroinitializer, align 1
@.str.106 = private unnamed_addr constant [5 x i8] c"%s%s\00", align 1

; Function Attrs: nounwind uwtable
define i32 @pmix20_bfrop_print_info(ptr noundef %0, ptr noundef %1, ptr noundef %2, i16 noundef zeroext %3) #0 {
  %5 = alloca i32, align 4
  %6 = alloca ptr, align 8
  %7 = alloca ptr, align 8
  %8 = alloca ptr, align 8
  %9 = alloca i16, align 2
  %10 = alloca ptr, align 8
  %11 = alloca i32, align 4
  %12 = alloca i32, align 4
  store ptr %0, ptr %6, align 8, !tbaa !3
  store ptr %1, ptr %7, align 8, !tbaa !8
  store ptr %2, ptr %8, align 8, !tbaa !66
  store i16 %3, ptr %9, align 2, !tbaa !11
  call void @llvm.lifetime.start.p0(i64 8, ptr %10) #7
  call void @llvm.lifetime.start.p0(i64 4, ptr %11) #7
  %13 = load ptr, ptr %8, align 8, !tbaa !66
  %14 = getelementptr inbounds nuw %struct.pmix_info, ptr %13, i32 0, i32 2
  %15 = call i32 @pmix20_bfrop_print_value(ptr noundef %10, ptr noundef null, ptr noundef %14, i16 noundef zeroext 21)
  %16 = load ptr, ptr %6, align 8, !tbaa !3
  %17 = load ptr, ptr %7, align 8, !tbaa !8
  %18 = load ptr, ptr %8, align 8, !tbaa !66
  %19 = getelementptr inbounds nuw %struct.pmix_info, ptr %18, i32 0, i32 0
  %20 = getelementptr inbounds [512 x i8], ptr %19, i64 0, i64 0
  %21 = load ptr, ptr %8, align 8, !tbaa !66
  %22 = getelementptr inbounds nuw %struct.pmix_info, ptr %21, i32 0, i32 1
  %23 = load i32, ptr %22, align 8, !tbaa !68
  %24 = load ptr, ptr %10, align 8, !tbaa !8
  %25 = icmp eq ptr null, %24
  br i1 %25, label %26, label %27

26:                                               ; preds = %4
  br label %29

27:                                               ; preds = %4
  %28 = load ptr, ptr %10, align 8, !tbaa !8
  br label %29

29:                                               ; preds = %27, %26
  %30 = phi ptr [ @.str.75, %26 ], [ %28, %27 ]
  %31 = call i32 (ptr, ptr, ...) @asprintf(ptr noundef %16, ptr noundef @.str.74, ptr noundef %17, ptr noundef %20, i32 noundef %23, ptr noundef %30) #7
  store i32 %31, ptr %11, align 4, !tbaa !21
  %32 = load ptr, ptr %10, align 8, !tbaa !8
  %33 = icmp ne ptr null, %32
  br i1 %33, label %34, label %36

34:                                               ; preds = %29
  %35 = load ptr, ptr %10, align 8, !tbaa !8
  call void @free(ptr noundef %35) #7
  br label %36

36:                                               ; preds = %34, %29
  %37 = load i32, ptr %11, align 4, !tbaa !21
  %38 = icmp sgt i32 0, %37
  br i1 %38, label %39, label %40

39:                                               ; preds = %36
  store i32 -32, ptr %5, align 4
  store i32 1, ptr %12, align 4
  br label %41

40:                                               ; preds = %36
  store i32 0, ptr %5, align 4
  store i32 1, ptr %12, align 4
  br label %41

41:                                               ; preds = %40, %39
  call void @llvm.lifetime.end.p0(i64 4, ptr %11) #7
  call void @llvm.lifetime.end.p0(i64 8, ptr %10) #7
  %42 = load i32, ptr %5, align 4
  ret i32 %42
}

; Function Attrs: nounwind uwtable
define i32 @pmix20_bfrop_print_array(ptr noundef %0, ptr noundef %1, ptr noundef %2, i16 noundef zeroext %3) #0 {
  %5 = alloca i32, align 4
  %6 = alloca ptr, align 8
  %7 = alloca ptr, align 8
  %8 = alloca ptr, align 8
  %9 = alloca i16, align 2
  %10 = alloca i64, align 8
  %11 = alloca ptr, align 8
  %12 = alloca ptr, align 8
  %13 = alloca ptr, align 8
  %14 = alloca ptr, align 8
  %15 = alloca ptr, align 8
  %16 = alloca i32, align 4
  store ptr %0, ptr %6, align 8, !tbaa !3
  store ptr %1, ptr %7, align 8, !tbaa !8
  store ptr %2, ptr %8, align 8, !tbaa !97
  store i16 %3, ptr %9, align 2, !tbaa !11
  call void @llvm.lifetime.start.p0(i64 8, ptr %10) #7
  call void @llvm.lifetime.start.p0(i64 8, ptr %11) #7
  call void @llvm.lifetime.start.p0(i64 8, ptr %12) #7
  call void @llvm.lifetime.start.p0(i64 8, ptr %13) #7
  call void @llvm.lifetime.start.p0(i64 8, ptr %14) #7
  call void @llvm.lifetime.start.p0(i64 8, ptr %15) #7
  %17 = load ptr, ptr %7, align 8, !tbaa !8
  %18 = load ptr, ptr %8, align 8, !tbaa !97
  %19 = getelementptr inbounds nuw %struct.pmix_info_array, ptr %18, i32 0, i32 0
  %20 = load i64, ptr %19, align 8, !tbaa !99
  %21 = call i32 (ptr, ptr, ...) @asprintf(ptr noundef %11, ptr noundef @.str.103, ptr noundef %17, i64 noundef %20) #7
  %22 = icmp sgt i32 0, %21
  br i1 %22, label %23, label %24

23:                                               ; preds = %4
  store i32 -32, ptr %5, align 4
  store i32 1, ptr %16, align 4
  br label %69

24:                                               ; preds = %4
  %25 = load ptr, ptr %7, align 8, !tbaa !8
  %26 = icmp eq ptr null, %25
  br i1 %26, label %27, label %28

27:                                               ; preds = %24
  br label %30

28:                                               ; preds = %24
  %29 = load ptr, ptr %7, align 8, !tbaa !8
  br label %30

30:                                               ; preds = %28, %27
  %31 = phi ptr [ @.str.105, %27 ], [ %29, %28 ]
  %32 = call i32 (ptr, ptr, ...) @asprintf(ptr noundef %14, ptr noundef @.str.104, ptr noundef %31) #7
  %33 = icmp sgt i32 0, %32
  br i1 %33, label %34, label %36

34:                                               ; preds = %30
  %35 = load ptr, ptr %11, align 8, !tbaa !8
  call void @free(ptr noundef %35) #7
  store i32 -32, ptr %5, align 4
  store i32 1, ptr %16, align 4
  br label %69

36:                                               ; preds = %30
  %37 = load ptr, ptr %8, align 8, !tbaa !97
  %38 = getelementptr inbounds nuw %struct.pmix_info_array, ptr %37, i32 0, i32 1
  %39 = load ptr, ptr %38, align 8, !tbaa !101
  store ptr %39, ptr %15, align 8, !tbaa !66
  store i64 0, ptr %10, align 8, !tbaa !34
  br label %40

40:                                               ; preds = %63, %36
  %41 = load i64, ptr %10, align 8, !tbaa !34
  %42 = load ptr, ptr %8, align 8, !tbaa !97
  %43 = getelementptr inbounds nuw %struct.pmix_info_array, ptr %42, i32 0, i32 0
  %44 = load i64, ptr %43, align 8, !tbaa !99
  %45 = icmp ult i64 %41, %44
  br i1 %45, label %46, label %66

46:                                               ; preds = %40
  %47 = load ptr, ptr %14, align 8, !tbaa !8
  %48 = load ptr, ptr %15, align 8, !tbaa !66
  %49 = load i64, ptr %10, align 8, !tbaa !34
  %50 = getelementptr inbounds nuw %struct.pmix_info, ptr %48, i64 %49
  %51 = call i32 @pmix20_bfrop_print_info(ptr noundef %12, ptr noundef %47, ptr noundef %50, i16 noundef zeroext 24)
  %52 = load ptr, ptr %11, align 8, !tbaa !8
  %53 = load ptr, ptr %12, align 8, !tbaa !8
  %54 = call i32 (ptr, ptr, ...) @asprintf(ptr noundef %13, ptr noundef @.str.106, ptr noundef %52, ptr noundef %53) #7
  %55 = icmp sgt i32 0, %54
  br i1 %55, label %56, label %59

56:                                               ; preds = %46
  %57 = load ptr, ptr %11, align 8, !tbaa !8
  call void @free(ptr noundef %57) #7
  %58 = load ptr, ptr %12, align 8, !tbaa !8
  call void @free(ptr noundef %58) #7
  store i32 -32, ptr %5, align 4
  store i32 1, ptr %16, align 4
  br label %69

59:                                               ; preds = %46
  %60 = load ptr, ptr %11, align 8, !tbaa !8
  call void @free(ptr noundef %60) #7
  %61 = load ptr, ptr %12, align 8, !tbaa !8
  call void @free(ptr noundef %61) #7
  %62 = load ptr, ptr %13, align 8, !tbaa !8
  store ptr %62, ptr %11, align 8, !tbaa !8
  br label %63

63:                                               ; preds = %59
  %64 = load i64, ptr %10, align 8, !tbaa !34
  %65 = add i64 %64, 1
  store i64 %65, ptr %10, align 8, !tbaa !34
  br label %40, !llvm.loop !102

66:                                               ; preds = %40
  %67 = load ptr, ptr %11, align 8, !tbaa !8
  %68 = load ptr, ptr %6, align 8, !tbaa !3
  store ptr %67, ptr %68, align 8, !tbaa !8
  store i32 0, ptr %5, align 4
  store i32 1, ptr %16, align 4
  br label %69

69:                                               ; preds = %66, %56, %34, %23
  call void @llvm.lifetime.end.p0(i64 8, ptr %15) #7
  call void @llvm.lifetime.end.p0(i64 8, ptr %14) #7
  call void @llvm.lifetime.end.p0(i64 8, ptr %13) #7
  call void @llvm.lifetime.end.p0(i64 8, ptr %12) #7
  call void @llvm.lifetime.end.p0(i64 8, ptr %11) #7
  call void @llvm.lifetime.end.p0(i64 8, ptr %10) #7
  %70 = load i32, ptr %5, align 4
  ret i32 %70
}