; Function Attrs: nounwind uwtable
define range(i32 -32, 1) i32 @pmix20_bfrop_print_array(ptr noundef writeonly captures(none) %0, ptr noundef %1, ptr noundef readonly captures(none) %2, i16 noundef zeroext %3) local_unnamed_addr #0 {
  %5 = alloca ptr, align 8
  %6 = alloca ptr, align 8
  %7 = alloca ptr, align 8
  %8 = alloca ptr, align 8
  %9 = alloca ptr, align 8
  call void @llvm.lifetime.start.p0(i64 8, ptr nonnull %6) #7
  call void @llvm.lifetime.start.p0(i64 8, ptr nonnull %7) #7
  call void @llvm.lifetime.start.p0(i64 8, ptr nonnull %8) #7
  call void @llvm.lifetime.start.p0(i64 8, ptr nonnull %9) #7
  %10 = load i64, ptr %2, align 8, !tbaa !63
  %11 = call i32 (ptr, ptr, ...) @asprintf(ptr noundef nonnull %6, ptr noundef nonnull @.str.103, ptr noundef %1, i64 noundef %10) #7
  %12 = icmp slt i32 %11, 0
  br i1 %12, label %.loopexit, label %13

13:                                               ; preds = %4
  %14 = icmp eq ptr %1, null
  %15 = select i1 %14, ptr @.str.105, ptr %1
  %16 = call i32 (ptr, ptr, ...) @asprintf(ptr noundef nonnull %9, ptr noundef nonnull @.str.104, ptr noundef nonnull %15) #7
  %17 = icmp slt i32 %16, 0
  br i1 %17, label %18, label %20

18:                                               ; preds = %13
  %19 = load ptr, ptr %6, align 8, !tbaa !20
  call void @free(ptr noundef %19) #7
  br label %.loopexit

20:                                               ; preds = %13
  %21 = getelementptr inbounds nuw i8, ptr %2, i64 8
  %22 = load ptr, ptr %21, align 8, !tbaa !65
  %23 = load i64, ptr %2, align 8, !tbaa !63
  %.not = icmp eq i64 %23, 0
  br i1 %.not, label %.._crit_edge_crit_edge, label %.lr.ph

.._crit_edge_crit_edge:                           ; preds = %20
  %.pre = load ptr, ptr %6, align 8, !tbaa !20
  br label %._crit_edge

.lr.ph:                                           ; preds = %20, %42
  %.01112 = phi i64 [ %44, %42 ], [ 0, %20 ]
  %24 = load ptr, ptr %9, align 8, !tbaa !20
  %25 = getelementptr inbounds nuw %struct.pmix_info, ptr %22, i64 %.01112
  call void @llvm.lifetime.start.p0(i64 8, ptr nonnull %5) #7
  %26 = getelementptr inbounds nuw i8, ptr %25, i64 520
  %27 = call i32 @pmix20_bfrop_print_value(ptr noundef nonnull %5, ptr noundef null, ptr noundef nonnull %26, i16 zeroext poison)
  %28 = getelementptr inbounds nuw i8, ptr %25, i64 512
  %29 = load i32, ptr %28, align 8, !tbaa !48
  %30 = load ptr, ptr %5, align 8, !tbaa !20
  %31 = icmp eq ptr %30, null
  %32 = select i1 %31, ptr @.str.75, ptr %30
  %33 = call i32 (ptr, ptr, ...) @asprintf(ptr noundef nonnull %7, ptr noundef nonnull @.str.74, ptr noundef %24, ptr noundef %25, i32 noundef %29, ptr noundef nonnull %32) #7
  %34 = load ptr, ptr %5, align 8, !tbaa !20
  %.not.i = icmp eq ptr %34, null
  br i1 %.not.i, label %pmix20_bfrop_print_info.exit, label %35

35:                                               ; preds = %.lr.ph
  call void @free(ptr noundef nonnull %34) #7
  br label %pmix20_bfrop_print_info.exit

pmix20_bfrop_print_info.exit:                     ; preds = %.lr.ph, %35
  call void @llvm.lifetime.end.p0(i64 8, ptr nonnull %5) #7
  %36 = load ptr, ptr %6, align 8, !tbaa !20
  %37 = load ptr, ptr %7, align 8, !tbaa !20
  %38 = call i32 (ptr, ptr, ...) @asprintf(ptr noundef nonnull %8, ptr noundef nonnull @.str.106, ptr noundef %36, ptr noundef %37) #7
  %39 = icmp slt i32 %38, 0
  %40 = load ptr, ptr %6, align 8, !tbaa !20
  call void @free(ptr noundef %40) #7
  %41 = load ptr, ptr %7, align 8, !tbaa !20
  call void @free(ptr noundef %41) #7
  br i1 %39, label %.loopexit, label %42

42:                                               ; preds = %pmix20_bfrop_print_info.exit
  %43 = load ptr, ptr %8, align 8, !tbaa !20
  store ptr %43, ptr %6, align 8, !tbaa !20
  %44 = add nuw i64 %.01112, 1
  %45 = load i64, ptr %2, align 8, !tbaa !63
  %46 = icmp ult i64 %44, %45
  br i1 %46, label %.lr.ph, label %._crit_edge, !llvm.loop !66

._crit_edge:                                      ; preds = %42, %.._crit_edge_crit_edge
  %47 = phi ptr [ %.pre, %.._crit_edge_crit_edge ], [ %43, %42 ]
  store ptr %47, ptr %0, align 8, !tbaa !20
  br label %.loopexit

.loopexit:                                        ; preds = %pmix20_bfrop_print_info.exit, %4, %._crit_edge, %18
  %.0 = phi i32 [ -32, %18 ], [ 0, %._crit_edge ], [ -32, %4 ], [ -32, %pmix20_bfrop_print_info.exit ]
  call void @llvm.lifetime.end.p0(i64 8, ptr nonnull %9) #7
  call void @llvm.lifetime.end.p0(i64 8, ptr nonnull %8) #7
  call void @llvm.lifetime.end.p0(i64 8, ptr nonnull %7) #7
  call void @llvm.lifetime.end.p0(i64 8, ptr nonnull %6) #7
  ret i32 %.0
}